target datalayout = "e-m:e-p270:32:32-p271:32:32-p272:64:64-i64:64-i128:128-f80:128-n8:16:32:64-S128"
target triple = "x86_64-unknown-linux-gnu"

%class.params_ref = type { ptr }
%struct.parallel_params = type { ptr, %class.params_ref }

@.str.59 = private unnamed_addr constant [9 x i8] c"parallel\00", align 1
@.str.60 = private unnamed_addr constant [7 x i8] c"enable\00", align 1

; Function Attrs: mustprogress nounwind uwtable
define linkonce_odr hidden void @_ZN15parallel_paramsD2Ev(ptr noundef nonnull align 8 dereferenceable(16) %this) unnamed_addr #4 comdat align 2 {
entry:
  %this.addr = alloca ptr, align 8
  store ptr %this, ptr %this.addr, align 8
  %this1 = load ptr, ptr %this.addr, align 8
  %g = getelementptr inbounds %struct.parallel_params, ptr %this1, i32 0, i32 1
  call void @_ZN10params_refD1Ev(ptr noundef nonnull align 8 dereferenceable(8) %g) #3
  ret void
}

; Function Attrs: mustprogress nounwind uwtable
define linkonce_odr hidden void @_ZN10params_refC2Ev(ptr noundef nonnull align 8 dereferenceable(8) %this) unnamed_addr #4 comdat align 2 {
entry:
  %this.addr = alloca ptr, align 8
  store ptr %this, ptr %this.addr, align 8
  %this1 = load ptr, ptr %this.addr, align 8
  %m_params = getelementptr inbounds %class.params_ref, ptr %this1, i32 0, i32 0
  store ptr null, ptr %m_params, align 8
  ret void
}

; Function Attrs: mustprogress uwtable
define hidden noundef ptr @_Z17mk_inc_sat_solverR11ast_managerRK10params_refb(ptr noundef nonnull align 8 dereferenceable(976) %m, ptr noundef nonnull align 8 dereferenceable(8) %p, i1 noundef zeroext %incremental_mode) #5 {
entry:
  %m.addr = alloca ptr, align 8
  %p.addr = alloca ptr, align 8
  %incremental_mode.addr = alloca i8, align 1
  store ptr %m, ptr %m.addr, align 8
  store ptr %p, ptr %p.addr, align 8
  %frombool = zext i1 %incremental_mode to i8
  store i8 %frombool, ptr %incremental_mode.addr, align 1
  %call = call noalias noundef ptr @_ZN6memory8allocateEm(i64 noundef 5008)
  %0 = load ptr, ptr %m.addr, align 8
  %1 = load ptr, ptr %p.addr, align 8
  %2 = load i8, ptr %incremental_mode.addr, align 1
  %tobool = trunc i8 %2 to i1
  call void @_ZN14inc_sat_solverC2ER11ast_managerRK10params_refb(ptr noundef nonnull align 8 dereferenceable(5008) %call, ptr noundef nonnull align 8 dereferenceable(976) %0, ptr noundef nonnull align 8 dereferenceable(8) %1, i1 noundef zeroext %tobool)
  ret ptr %call
}

; Function Attrs: mustprogress uwtable
define linkonce_odr hidden noundef zeroext i1 @_ZNK15parallel_params6enableEv(ptr noundef nonnull align 8 dereferenceable(16) %this) #5 comdat align 2 {
entry:
  %this.addr = alloca ptr, align 8
  store ptr %this, ptr %this.addr, align 8
  %this1 = load ptr, ptr %this.addr, align 8
  %p = getelementptr inbounds %struct.parallel_params, ptr %this1, i32 0, i32 0
  %0 = load ptr, ptr %p, align 8
  %g = getelementptr inbounds %struct.parallel_params, ptr %this1, i32 0, i32 1
  %call = call noundef zeroext i1 @_ZNK10params_ref8get_boolEPKcRKS_b(ptr noundef nonnull align 8 dereferenceable(8) %0, ptr noundef @.str.60, ptr noundef nonnull align 8 dereferenceable(8) %g, i1 noundef zeroext false)
  ret i1 %call
}

; Function Attrs: mustprogress uwtable
define linkonce_odr hidden void @_ZN15parallel_paramsC2ERK10params_ref(ptr noundef nonnull align 8 dereferenceable(16) %this, ptr noundef nonnull align 8 dereferenceable(8) %_p) unnamed_addr #5 comdat align 2 {
entry:
  %this.addr = alloca ptr, align 8
  %_p.addr = alloca ptr, align 8
  store ptr %this, ptr %this.addr, align 8
  store ptr %_p, ptr %_p.addr, align 8
  %this1 = load ptr, ptr %this.addr, align 8
  %p = getelementptr inbounds %struct.parallel_params, ptr %this1, i32 0, i32 0
  %0 = load ptr, ptr %_p.addr, align 8
  store ptr %0, ptr %p, align 8
  %g = getelementptr inbounds %struct.parallel_params, ptr %this1, i32 0, i32 1
  call void @_ZN7gparams10get_moduleEPKc(ptr sret(%class.params_ref) align 8 %g, ptr noundef @.str.59)
  ret void
}

; Function Attrs: mustprogress uwtable
define hidden noundef ptr @_Z14mk_psat_tacticR11ast_managerRK10params_ref(ptr noundef nonnull align 8 dereferenceable(976) %m, ptr noundef nonnull align 8 dereferenceable(8) %p) #5 personality ptr @__gxx_personality_v0 {
entry:
  %retval = alloca ptr, align 8
  %m.addr = alloca ptr, align 8
  %p.addr = alloca ptr, align 8
  %pp = alloca %struct.parallel_params, align 8
  %exn.slot = alloca ptr, align 8
  %ehselector.slot = alloca i32, align 4
  %ref.tmp = alloca %class.params_ref, align 8
  %cleanup.cond = alloca i1, align 1
  store ptr %m, ptr %m.addr, align 8
  store ptr %p, ptr %p.addr, align 8
  %0 = load ptr, ptr %p.addr, align 8
  call void @_ZN15parallel_paramsC2ERK10params_ref(ptr noundef nonnull align 8 dereferenceable(16) %pp, ptr noundef nonnull align 8 dereferenceable(8) %0)
  store i1 false, ptr %cleanup.cond, align 1
  %call = invoke noundef zeroext i1 @_ZNK15parallel_params6enableEv(ptr noundef nonnull align 8 dereferenceable(16) %pp)
          to label %invoke.cont unwind label %lpad

invoke.cont:                                      ; preds = %entry
  br i1 %call, label %cond.true, label %cond.false

cond.true:                                        ; preds = %invoke.cont
  %1 = load ptr, ptr %m.addr, align 8
  %2 = load ptr, ptr %p.addr, align 8
  %call2 = invoke noundef ptr @_Z17mk_inc_sat_solverR11ast_managerRK10params_refb(ptr noundef nonnull align 8 dereferenceable(976) %1, ptr noundef nonnull align 8 dereferenceable(8) %2, i1 noundef zeroext false)
          to label %invoke.cont1 unwind label %lpad

invoke.cont1:                                     ; preds = %cond.true
  %3 = load ptr, ptr %p.addr, align 8
  %call4 = invoke noundef ptr @_Z18mk_parallel_tacticP6solverRK10params_ref(ptr noundef %call2, ptr noundef nonnull align 8 dereferenceable(8) %3)
          to label %invoke.cont3 unwind label %lpad

invoke.cont3:                                     ; preds = %invoke.cont1
  br label %cond.end

cond.false:                                       ; preds = %invoke.cont
  %4 = load ptr, ptr %m.addr, align 8
  invoke void @_ZN10params_refC2Ev(ptr noundef nonnull align 8 dereferenceable(8) %ref.tmp)
          to label %invoke.cont5 unwind label %lpad

invoke.cont5:                                     ; preds = %cond.false
  store i1 true, ptr %cleanup.cond, align 1
  %call8 = invoke noundef ptr @_Z13mk_sat_tacticR11ast_managerRK10params_ref(ptr noundef nonnull align 8 dereferenceable(976) %4, ptr noundef nonnull align 8 dereferenceable(8) %ref.tmp)
          to label %invoke.cont7 unwind label %lpad6

invoke.cont7:                                     ; preds = %invoke.cont5
  br label %cond.end

cond.end:                                         ; preds = %invoke.cont7, %invoke.cont3
  %cond = phi ptr [ %call4, %invoke.cont3 ], [ %call8, %invoke.cont7 ]
  store ptr %cond, ptr %retval, align 8
  %cleanup.is_active = load i1, ptr %cleanup.cond, align 1
  br i1 %cleanup.is_active, label %cleanup.action, label %cleanup.done

cleanup.action:                                   ; preds = %cond.end
  call void @_ZN10params_refD1Ev(ptr noundef nonnull align 8 dereferenceable(8) %ref.tmp) #3
  br label %cleanup.done

cleanup.done:                                     ; preds = %cleanup.action, %cond.end
  call void @_ZN15parallel_paramsD2Ev(ptr noundef nonnull align 8 dereferenceable(16) %pp) #3
  %5 = load ptr, ptr %retval, align 8
  ret ptr %5

lpad:                                             ; preds = %cond.false, %invoke.cont1, %cond.true, %entry
  %6 = landingpad { ptr, i32 }
          cleanup
  %7 = extractvalue { ptr, i32 } %6, 0
  store ptr %7, ptr %exn.slot, align 8
  %8 = extractvalue { ptr, i32 } %6, 1
  store i32 %8, ptr %ehselector.slot, align 4
  br label %ehcleanup

lpad6:                                            ; preds = %invoke.cont5
  %9 = landingpad { ptr, i32 }
          cleanup
  %10 = extractvalue { ptr, i32 } %9, 0
  store ptr %10, ptr %exn.slot, align 8
  %11 = extractvalue { ptr, i32 } %9, 1
  store i32 %11, ptr %ehselector.slot, align 4
  %cleanup.is_active9 = load i1, ptr %cleanup.cond, align 1
  br i1 %cleanup.is_active9, label %cleanup.action10, label %cleanup.done11

cleanup.action10:                                 ; preds = %lpad6
  call void @_ZN10params_refD1Ev(ptr noundef nonnull align 8 dereferenceable(8) %ref.tmp) #3
  br label %cleanup.done11

cleanup.done11:                                   ; preds = %cleanup.action10, %lpad6
  br label %ehcleanup

ehcleanup:                                        ; preds = %cleanup.done11, %lpad
  call void @_ZN15parallel_paramsD2Ev(ptr noundef nonnull align 8 dereferenceable(16) %pp) #3
  br label %eh.resume

eh.resume:                                        ; preds = %ehcleanup
  %exn = load ptr, ptr %exn.slot, align 8
  %sel = load i32, ptr %ehselector.slot, align 4
  %lpad.val = insertvalue { ptr, i32 } poison, ptr %exn, 0
  %lpad.val12 = insertvalue { ptr, i32 } %lpad.val, i32 %sel, 1
  resume { ptr, i32 } %lpad.val12
}