; Function Attrs: mustprogress uwtable
define hidden noundef ptr @_Z14mk_psat_tacticR11ast_managerRK10params_ref(ptr noundef nonnull align 8 dereferenceable(976) %m, ptr noundef nonnull align 8 dereferenceable(8) %p) local_unnamed_addr #3 personality ptr @__gxx_personality_v0 {
entry:
  %pp = alloca %struct.parallel_params, align 8
  %ref.tmp = alloca %class.params_ref, align 8
  store ptr %p, ptr %pp, align 8
  %g.i = getelementptr inbounds i8, ptr %pp, i64 8
  call void @_ZN7gparams10get_moduleEPKc(ptr nonnull sret(%class.params_ref) align 8 %g.i, ptr noundef nonnull @.str.59)
  %0 = load ptr, ptr %pp, align 8
  %call.i6 = invoke noundef zeroext i1 @_ZNK10params_ref8get_boolEPKcRKS_b(ptr noundef nonnull align 8 dereferenceable(8) %0, ptr noundef nonnull @.str.60, ptr noundef nonnull align 8 dereferenceable(8) %g.i, i1 noundef zeroext false)
          to label %invoke.cont unwind label %lpad

invoke.cont:                                      ; preds = %entry
  br i1 %call.i6, label %cond.true, label %cond.false

cond.true:                                        ; preds = %invoke.cont
  %call.i7 = invoke noalias noundef ptr @_ZN6memory8allocateEm(i64 noundef 5008)
          to label %call.i.noexc unwind label %lpad

call.i.noexc:                                     ; preds = %cond.true
  invoke void @_ZN14inc_sat_solverC2ER11ast_managerRK10params_refb(ptr noundef nonnull align 8 dereferenceable(5008) %call.i7, ptr noundef nonnull align 8 dereferenceable(976) %m, ptr noundef nonnull align 8 dereferenceable(8) %p, i1 noundef zeroext false)
          to label %invoke.cont1 unwind label %lpad

invoke.cont1:                                     ; preds = %call.i.noexc
  %call4 = invoke noundef ptr @_Z18mk_parallel_tacticP6solverRK10params_ref(ptr noundef nonnull %call.i7, ptr noundef nonnull align 8 dereferenceable(8) %p)
          to label %cleanup.done unwind label %lpad

cond.false:                                       ; preds = %invoke.cont
  store ptr null, ptr %ref.tmp, align 8
  %call8 = invoke noundef ptr @_Z13mk_sat_tacticR11ast_managerRK10params_ref(ptr noundef nonnull align 8 dereferenceable(976) %m, ptr noundef nonnull align 8 dereferenceable(8) %ref.tmp)
          to label %cleanup.action unwind label %lpad6

cleanup.action:                                   ; preds = %cond.false
  call void @_ZN10params_refD1Ev(ptr noundef nonnull align 8 dereferenceable(8) %ref.tmp) #21
  br label %cleanup.done

cleanup.done:                                     ; preds = %invoke.cont1, %cleanup.action
  %cond11 = phi ptr [ %call8, %cleanup.action ], [ %call4, %invoke.cont1 ]
  call void @_ZN10params_refD1Ev(ptr noundef nonnull align 8 dereferenceable(8) %g.i) #21
  ret ptr %cond11

lpad:                                             ; preds = %call.i.noexc, %cond.true, %entry, %invoke.cont1
  %1 = landingpad { ptr, i32 }
          cleanup
  br label %ehcleanup

lpad6:                                            ; preds = %cond.false
  %2 = landingpad { ptr, i32 }
          cleanup
  call void @_ZN10params_refD1Ev(ptr noundef nonnull align 8 dereferenceable(8) %ref.tmp) #21
  br label %ehcleanup

ehcleanup:                                        ; preds = %lpad6, %lpad
  %.pn = phi { ptr, i32 } [ %1, %lpad ], [ %2, %lpad6 ]
  call void @_ZN10params_refD1Ev(ptr noundef nonnull align 8 dereferenceable(8) %g.i) #21
  resume { ptr, i32 } %.pn
}